; Function Attrs: mustprogress uwtable
define hidden noundef zeroext i1 @_ZN4cvc54main15CommandExecutor9doCommandEPNS_6parser7CommandE(ptr noundef nonnull align 8 dereferenceable(41) %this, ptr nocapture noundef readonly %cmd) local_unnamed_addr #4 align 2 {
cond.end:
  %0 = load ptr, ptr %cmd, align 8
  %vtable = load ptr, ptr %this, align 8
  %vfn = getelementptr inbounds i8, ptr %vtable, i64 24
  %1 = load ptr, ptr %vfn, align 8
  %call7 = tail call noundef zeroext i1 %1(ptr noundef nonnull align 8 dereferenceable(41) %this, ptr noundef %0)
  ret i1 %call7
}